target datalayout = "e-m:e-p270:32:32-p271:32:32-p272:64:64-i64:64-i128:128-f80:128-n8:16:32:64-S128"
target triple = "x86_64-pc-linux-gnu"

%struct._zval_struct = type { %union._zend_value, %union.anon, %union.anon.3 }
%union._zend_value = type { i64 }
%union.anon = type { i32 }
%union.anon.3 = type { i32 }

; Function Attrs: nounwind uwtable
define internal i32 @ct_eval_assign_dim(ptr noundef %0, ptr noundef %1, ptr noundef %2) #0 {
  %4 = alloca ptr, align 8
  %5 = alloca i32, align 4
  %6 = alloca ptr, align 8
  %7 = alloca ptr, align 8
  %8 = alloca ptr, align 8
  %9 = alloca ptr, align 8
  %10 = alloca ptr, align 8
  store ptr %0, ptr %6, align 8
  store ptr %1, ptr %7, align 8
  store ptr %2, ptr %8, align 8
  %11 = load ptr, ptr %6, align 8
  store ptr %11, ptr %4, align 8
  %12 = load ptr, ptr %4, align 8
  %13 = getelementptr inbounds %struct._zval_struct, ptr %12, i32 0, i32 1
  %14 = load i8, ptr %13, align 8
  %15 = zext i8 %14 to i32
  switch i32 %15, label %32 [
    i32 1, label %16
    i32 2, label %16
    i32 7, label %26
    i32 253, label %26
    i32 6, label %31
  ]

16:                                               ; preds = %3, %3
  br label %17

17:                                               ; preds = %16
  %18 = call ptr @_zend_new_array_0()
  store ptr %18, ptr %9, align 8
  %19 = load ptr, ptr %6, align 8
  store ptr %19, ptr %10, align 8
  %20 = load ptr, ptr %9, align 8
  %21 = load ptr, ptr %10, align 8
  %22 = getelementptr inbounds %struct._zval_struct, ptr %21, i32 0, i32 0
  store ptr %20, ptr %22, align 8
  %23 = load ptr, ptr %10, align 8
  %24 = getelementptr inbounds %struct._zval_struct, ptr %23, i32 0, i32 1
  store i32 775, ptr %24, align 8
  br label %25

25:                                               ; preds = %17
  br label %26

26:                                               ; preds = %25, %3, %3
  %27 = load ptr, ptr %6, align 8
  %28 = load ptr, ptr %7, align 8
  %29 = load ptr, ptr %8, align 8
  %30 = call i32 @ct_eval_add_array_elem(ptr noundef %27, ptr noundef %28, ptr noundef %29)
  store i32 %30, ptr %5, align 4
  br label %33

31:                                               ; preds = %3
  store i32 -1, ptr %5, align 4
  br label %33

32:                                               ; preds = %3
  store i32 -1, ptr %5, align 4
  br label %33

33:                                               ; preds = %32, %31, %26
  %34 = load i32, ptr %5, align 4
  ret i32 %34
}