; Function Attrs: nounwind uwtable
define internal fastcc noundef i32 @ct_eval_assign_dim(ptr nocapture noundef %0, ptr noundef %1, ptr noundef %2) unnamed_addr #0 {
  %4 = getelementptr inbounds i8, ptr %0, i64 8
  %5 = load i8, ptr %4, align 8
  switch i8 %5, label %10 [
    i8 1, label %6
    i8 2, label %6
    i8 7, label %8
    i8 -3, label %8
  ]

6:                                                ; preds = %3, %3
  %7 = tail call ptr @_zend_new_array_0() #13
  store ptr %7, ptr %0, align 8
  store i32 775, ptr %4, align 8
  br label %8

8:                                                ; preds = %6, %3, %3
  %9 = tail call fastcc i32 @ct_eval_add_array_elem(ptr noundef nonnull %0, ptr noundef %1, ptr noundef %2), !range !5
  br label %10

10:                                               ; preds = %3, %8
  %.0 = phi i32 [ %9, %8 ], [ -1, %3 ]
  ret i32 %.0
}